target datalayout = "e-m:e-p270:32:32-p271:32:32-p272:64:64-i64:64-i128:128-f80:128-n8:16:32:64-S128"
target triple = "x86_64-pc-linux-gnu"

@hf_gtpv2_len_trans_con = internal global i32 0, align 4
@hf_gtpv2_transparent_container = internal global i32 0, align 4
@ett_gtpv2_utran_con = internal global i32 0, align 4
@pref_decode_srvcc_p2c_trans_cont = internal global i32 0, align 4
@.str.1795 = private unnamed_addr constant [47 x i8] c"Source RNC to Target RNC Transparent Container\00", align 1

; Function Attrs: null_pointer_is_valid sspstrong uwtable
define internal void @dissect_gtpv2_src_tgt_trans_con(ptr noundef %0, ptr noundef %1, ptr noundef %2, ptr noundef %3, i16 noundef zeroext %4, i8 noundef zeroext %5, i8 noundef zeroext %6, ptr noundef %7) #1 {
  %9 = alloca ptr, align 8
  %10 = alloca ptr, align 8
  %11 = alloca ptr, align 8
  %12 = alloca ptr, align 8
  %13 = alloca i16, align 2
  %14 = alloca i8, align 1
  %15 = alloca i8, align 1
  %16 = alloca ptr, align 8
  %17 = alloca i32, align 4
  %18 = alloca ptr, align 8
  %19 = alloca ptr, align 8
  store ptr %0, ptr %9, align 8
  store ptr %1, ptr %10, align 8
  store ptr %2, ptr %11, align 8
  store ptr %3, ptr %12, align 8
  store i16 %4, ptr %13, align 2
  store i8 %5, ptr %14, align 1
  store i8 %6, ptr %15, align 1
  store ptr %7, ptr %16, align 8
  call void @llvm.lifetime.start.p0(i64 4, ptr %17) #11
  store i32 0, ptr %17, align 4
  %20 = load ptr, ptr %11, align 8
  %21 = load i32, ptr @hf_gtpv2_len_trans_con, align 4
  %22 = load ptr, ptr %9, align 8
  %23 = load i32, ptr %17, align 4
  %24 = call ptr @proto_tree_add_item(ptr noundef %20, i32 noundef %21, ptr noundef %22, i32 noundef %23, i32 noundef 1, i32 noundef 0)
  %25 = load i32, ptr %17, align 4
  %26 = add i32 %25, 1
  store i32 %26, ptr %17, align 4
  %27 = load ptr, ptr %11, align 8
  %28 = load i32, ptr @hf_gtpv2_transparent_container, align 4
  %29 = load ptr, ptr %9, align 8
  %30 = load i32, ptr %17, align 4
  %31 = load i16, ptr %13, align 2
  %32 = zext i16 %31 to i32
  %33 = sub i32 %32, 1
  %34 = call ptr @proto_tree_add_item(ptr noundef %27, i32 noundef %28, ptr noundef %29, i32 noundef %30, i32 noundef %33, i32 noundef 0)
  %35 = load i8, ptr %14, align 1
  %36 = zext i8 %35 to i32
  %37 = icmp eq i32 %36, 25
  br i1 %37, label %38, label %57

38:                                               ; preds = %8
  %39 = load i32, ptr @pref_decode_srvcc_p2c_trans_cont, align 4
  %40 = icmp eq i32 %39, 1
  br i1 %40, label %41, label %57

41:                                               ; preds = %38
  call void @llvm.lifetime.start.p0(i64 8, ptr %18) #11
  call void @llvm.lifetime.start.p0(i64 8, ptr %19) #11
  %42 = load ptr, ptr %11, align 8
  %43 = load ptr, ptr %9, align 8
  %44 = load i32, ptr %17, align 4
  %45 = load i16, ptr %13, align 2
  %46 = zext i16 %45 to i32
  %47 = sub i32 %46, 1
  %48 = load i32, ptr @ett_gtpv2_utran_con, align 4
  %49 = call ptr @proto_tree_add_subtree(ptr noundef %42, ptr noundef %43, i32 noundef %44, i32 noundef %47, i32 noundef %48, ptr noundef null, ptr noundef @.str.1795)
  store ptr %49, ptr %19, align 8
  %50 = load ptr, ptr %9, align 8
  %51 = load i32, ptr %17, align 4
  %52 = call ptr @tvb_new_subset_remaining(ptr noundef %50, i32 noundef %51)
  store ptr %52, ptr %18, align 8
  %53 = load ptr, ptr %18, align 8
  %54 = load ptr, ptr %10, align 8
  %55 = load ptr, ptr %19, align 8
  %56 = call i32 @dissect_ranap_SourceRNC_ToTargetRNC_TransparentContainer_PDU(ptr noundef %53, ptr noundef %54, ptr noundef %55, ptr noundef null)
  call void @llvm.lifetime.end.p0(i64 8, ptr %19) #11
  call void @llvm.lifetime.end.p0(i64 8, ptr %18) #11
  br label %57

57:                                               ; preds = %41, %38, %8
  call void @llvm.lifetime.end.p0(i64 4, ptr %17) #11
  ret void
}