; Function Attrs: null_pointer_is_valid sspstrong uwtable
define internal void @dissect_gtpv2_src_tgt_trans_con(ptr noundef %0, ptr noundef %1, ptr noundef %2, ptr readnone captures(none) %3, i16 noundef zeroext %4, i8 noundef zeroext %5, i8 zeroext %6, ptr readnone captures(none) %7) #1 {
  %9 = load i32, ptr @hf_gtpv2_len_trans_con, align 4
  %10 = tail call ptr @proto_tree_add_item(ptr noundef %2, i32 noundef %9, ptr noundef %0, i32 noundef 0, i32 noundef 1, i32 noundef 0)
  %11 = load i32, ptr @hf_gtpv2_transparent_container, align 4
  %12 = zext i16 %4 to i32
  %13 = add nsw i32 %12, -1
  %14 = tail call ptr @proto_tree_add_item(ptr noundef %2, i32 noundef %11, ptr noundef %0, i32 noundef 1, i32 noundef %13, i32 noundef 0)
  %15 = icmp eq i8 %5, 25
  %16 = load i32, ptr @pref_decode_srvcc_p2c_trans_cont, align 4
  %17 = icmp eq i32 %16, 1
  %or.cond = select i1 %15, i1 %17, i1 false
  br i1 %or.cond, label %18, label %23

18:                                               ; preds = %8
  %19 = load i32, ptr @ett_gtpv2_utran_con, align 4
  %20 = tail call ptr @proto_tree_add_subtree(ptr noundef %2, ptr noundef %0, i32 noundef 1, i32 noundef %13, i32 noundef %19, ptr noundef null, ptr noundef nonnull @.str.1795)
  %21 = tail call ptr @tvb_new_subset_remaining(ptr noundef %0, i32 noundef 1)
  %22 = tail call i32 @dissect_ranap_SourceRNC_ToTargetRNC_TransparentContainer_PDU(ptr noundef %21, ptr noundef %1, ptr noundef %20, ptr noundef null)
  br label %23

23:                                               ; preds = %18, %8
  ret void
}